target datalayout = "e-m:e-p270:32:32-p271:32:32-p272:64:64-i64:64-i128:128-f80:128-n8:16:32:64-S128"
target triple = "x86_64-pc-linux-gnu"

%struct.nstime_t = type { i64, i32 }
%struct.wtap_dumper = type { ptr, i32, i32, i32, i32, i8, i64, ptr, ptr, ptr, ptr, ptr, ptr, ptr, ptr, ptr, ptr, ptr, ptr, ptr, i32, i32, i32 }
%struct.netmon_dump_t = type { i8, i8, %struct.nstime_t, i32, ptr, i32, i32, i8 }

; Function Attrs: null_pointer_is_valid sspstrong uwtable
define internal zeroext i1 @netmon_dump_open(ptr noundef %0, i1 noundef zeroext %1, ptr noundef %2, ptr noundef %3) #0 {
  %5 = alloca i1, align 1
  %6 = alloca ptr, align 8
  %7 = alloca i8, align 1
  %8 = alloca ptr, align 8
  %9 = alloca ptr, align 8
  %10 = alloca ptr, align 8
  %11 = alloca i32, align 4
  %12 = alloca i64, align 8
  %13 = alloca i64, align 8
  %14 = alloca ptr, align 8
  %15 = alloca ptr, align 8
  store ptr %0, ptr %6, align 8
  %16 = zext i1 %1 to i8
  store i8 %16, ptr %7, align 1
  store ptr %2, ptr %8, align 8
  store ptr %3, ptr %9, align 8
  call void @llvm.lifetime.start.p0(i64 8, ptr %10) #13
  %17 = load ptr, ptr %6, align 8
  %18 = load ptr, ptr %8, align 8
  %19 = call i64 @wtap_dump_file_seek(ptr noundef %17, i64 noundef 128, i32 noundef 0, ptr noundef %18)
  %20 = icmp eq i64 %19, -1
  br i1 %20, label %21, label %22

21:                                               ; preds = %4
  store i1 false, ptr %5, align 1
  store i32 1, ptr %11, align 4
  br label %78

22:                                               ; preds = %4
  %23 = load ptr, ptr %6, align 8
  %24 = getelementptr inbounds nuw %struct.wtap_dumper, ptr %23, i32 0, i32 6
  store i64 128, ptr %24, align 8
  %25 = load ptr, ptr %6, align 8
  %26 = getelementptr inbounds nuw %struct.wtap_dumper, ptr %25, i32 0, i32 10
  store ptr @netmon_dump, ptr %26, align 8
  %27 = load ptr, ptr %6, align 8
  %28 = getelementptr inbounds nuw %struct.wtap_dumper, ptr %27, i32 0, i32 11
  store ptr @netmon_dump_finish, ptr %28, align 8
  call void @llvm.lifetime.start.p0(i64 8, ptr %12) #13
  store i64 1, ptr %12, align 8
  call void @llvm.lifetime.start.p0(i64 8, ptr %13) #13
  store i64 56, ptr %13, align 8
  call void @llvm.lifetime.start.p0(i64 8, ptr %14) #13
  %29 = load i64, ptr %13, align 8
  %30 = icmp eq i64 %29, 1
  br i1 %30, label %31, label %34

31:                                               ; preds = %22
  %32 = load i64, ptr %12, align 8
  %33 = call noalias ptr @g_malloc(i64 noundef %32) #15
  store ptr %33, ptr %14, align 8
  br label %55

34:                                               ; preds = %22
  %35 = load i64, ptr %12, align 8
  %36 = call i1 @llvm.is.constant.i64(i64 %35)
  br i1 %36, label %37, label %50

37:                                               ; preds = %34
  %38 = load i64, ptr %13, align 8
  %39 = icmp eq i64 %38, 0
  br i1 %39, label %45, label %40

40:                                               ; preds = %37
  %41 = load i64, ptr %12, align 8
  %42 = load i64, ptr %13, align 8
  %43 = udiv i64 -1, %42
  %44 = icmp ule i64 %41, %43
  br i1 %44, label %45, label %50

45:                                               ; preds = %40, %37
  %46 = load i64, ptr %12, align 8
  %47 = load i64, ptr %13, align 8
  %48 = mul i64 %46, %47
  %49 = call noalias ptr @g_malloc(i64 noundef %48) #15
  store ptr %49, ptr %14, align 8
  br label %54

50:                                               ; preds = %40, %34
  %51 = load i64, ptr %12, align 8
  %52 = load i64, ptr %13, align 8
  %53 = call noalias ptr @g_malloc_n(i64 noundef %51, i64 noundef %52) #16
  store ptr %53, ptr %14, align 8
  br label %54

54:                                               ; preds = %50, %45
  br label %55

55:                                               ; preds = %54, %31
  %56 = load ptr, ptr %14, align 8
  store ptr %56, ptr %15, align 8
  call void @llvm.lifetime.end.p0(i64 8, ptr %14) #13
  call void @llvm.lifetime.end.p0(i64 8, ptr %13) #13
  call void @llvm.lifetime.end.p0(i64 8, ptr %12) #13
  %57 = load ptr, ptr %15, align 8
  store ptr %57, ptr %10, align 8
  %58 = load ptr, ptr %10, align 8
  %59 = load ptr, ptr %6, align 8
  %60 = getelementptr inbounds nuw %struct.wtap_dumper, ptr %59, i32 0, i32 7
  store ptr %58, ptr %60, align 8
  %61 = load i8, ptr %7, align 1, !range !8, !noundef !9
  %62 = trunc i8 %61 to i1
  %63 = load ptr, ptr %10, align 8
  %64 = getelementptr inbounds nuw %struct.netmon_dump_t, ptr %63, i32 0, i32 0
  %65 = zext i1 %62 to i8
  store i8 %65, ptr %64, align 8
  %66 = load ptr, ptr %10, align 8
  %67 = getelementptr inbounds nuw %struct.netmon_dump_t, ptr %66, i32 0, i32 3
  store i32 128, ptr %67, align 8
  %68 = load ptr, ptr %10, align 8
  %69 = getelementptr inbounds nuw %struct.netmon_dump_t, ptr %68, i32 0, i32 1
  store i8 0, ptr %69, align 1
  %70 = load ptr, ptr %10, align 8
  %71 = getelementptr inbounds nuw %struct.netmon_dump_t, ptr %70, i32 0, i32 4
  store ptr null, ptr %71, align 8
  %72 = load ptr, ptr %10, align 8
  %73 = getelementptr inbounds nuw %struct.netmon_dump_t, ptr %72, i32 0, i32 5
  store i32 0, ptr %73, align 8
  %74 = load ptr, ptr %10, align 8
  %75 = getelementptr inbounds nuw %struct.netmon_dump_t, ptr %74, i32 0, i32 6
  store i32 0, ptr %75, align 4
  %76 = load ptr, ptr %10, align 8
  %77 = getelementptr inbounds nuw %struct.netmon_dump_t, ptr %76, i32 0, i32 7
  store i8 0, ptr %77, align 8
  store i1 true, ptr %5, align 1
  store i32 1, ptr %11, align 4
  br label %78

78:                                               ; preds = %55, %21
  call void @llvm.lifetime.end.p0(i64 8, ptr %10) #13
  %79 = load i1, ptr %5, align 1
  ret i1 %79
}

; Function Attrs: null_pointer_is_valid sspstrong uwtable
define internal zeroext i1 @netmon_dump_open_2_x(ptr noundef %0, ptr noundef %1, ptr noundef %2) #0 {
  %4 = alloca ptr, align 8
  %5 = alloca ptr, align 8
  %6 = alloca ptr, align 8
  store ptr %0, ptr %4, align 8
  store ptr %1, ptr %5, align 8
  store ptr %2, ptr %6, align 8
  %7 = load ptr, ptr %4, align 8
  %8 = load ptr, ptr %5, align 8
  %9 = load ptr, ptr %6, align 8
  %10 = call zeroext i1 @netmon_dump_open(ptr noundef %7, i1 noundef zeroext true, ptr noundef %8, ptr noundef %9)
  ret i1 %10
}