; Function Attrs: null_pointer_is_valid sspstrong uwtable
define internal noundef zeroext i1 @netmon_dump_open_2_x(ptr noundef %0, ptr noundef %1, ptr readnone captures(none) %2) #0 {
  %4 = tail call i64 @wtap_dump_file_seek(ptr noundef %0, i64 noundef 128, i32 noundef 0, ptr noundef %1)
  %5 = icmp ne i64 %4, -1
  br i1 %5, label %6, label %netmon_dump_open.exit

6:                                                ; preds = %3
  %7 = getelementptr inbounds nuw i8, ptr %0, i64 32
  store i64 128, ptr %7, align 8
  %8 = getelementptr inbounds nuw i8, ptr %0, i64 64
  store ptr @netmon_dump, ptr %8, align 8
  %9 = getelementptr inbounds nuw i8, ptr %0, i64 72
  store ptr @netmon_dump_finish, ptr %9, align 8
  %10 = tail call noalias dereferenceable_or_null(56) ptr @g_malloc(i64 noundef 56) #13
  %11 = getelementptr inbounds nuw i8, ptr %0, i64 40
  store ptr %10, ptr %11, align 8
  store i8 1, ptr %10, align 8
  %12 = getelementptr inbounds nuw i8, ptr %10, i64 24
  store i32 128, ptr %12, align 8
  %13 = getelementptr inbounds nuw i8, ptr %10, i64 1
  store i8 0, ptr %13, align 1
  %14 = getelementptr inbounds nuw i8, ptr %10, i64 32
  tail call void @llvm.memset.p0.i64(ptr noundef nonnull align 8 dereferenceable(17) %14, i8 0, i64 17, i1 false)
  br label %netmon_dump_open.exit

netmon_dump_open.exit:                            ; preds = %3, %6
  ret i1 %5
}